Certificate:
    Data:
        Version: 3 (0x2)
        Serial Number: 292 (0x124)
    Signature Algorithm: sha256WithRSAEncryption
        Issuer: C=br, ST=Santa Catarina, L=Porto Belo, O=Univali, OU=CTTMar, CN=cttmar.univali.br
        Validity
            Not Before: Jul 27 23:21:41 2016 GMT
            Not After : Jul 27 23:21:41 2017 GMT
        Subject: C=br, ST=sc, O=cttmar, OU=univali, CN=client7
        Subject Public Key Info:
            Public Key Algorithm: rsaEncryption
                Public-Key: (2048 bit)
                Modulus:
                    00:a6:91:7e:87:42:88:28:a2:54:42:2a:cf:47:c6:
                    4a:86:77:e8:8f:b1:00:d0:d3:ab:92:79:00:f9:38:
                    98:9d:b3:79:6d:64:53:d8:b2:d7:de:2d:00:3d:5c:
                    d6:54:48:15:c7:a8:99:b6:e5:ca:9d:69:bd:f9:fc:
                    6a:8a:94:53:b7:e4:8c:e1:78:15:8b:66:c7:a4:38:
                    82:d8:ce:ed:10:44:a2:73:fb:2c:32:f5:6c:2e:c3:
                    64:78:ad:dd:3f:54:fe:7e:8b:26:e9:89:e2:15:76:
                    5d:b4:67:a4:ec:4c:a0:79:5a:86:77:56:bc:f0:a6:
                    0f:d0:8c:0d:85:6c:a5:6d:ed:30:65:dc:a9:a3:0f:
                    0e:90:46:9c:36:51:1c:fe:3a:c1:a5:22:38:a5:b6:
                    e7:15:45:a1:8a:8b:1a:5e:a9:13:f4:15:40:07:41:
                    ef:bf:af:ef:44:cb:d0:0b:e0:51:42:14:14:64:0d:
                    b7:d1:4f:d6:00:f9:26:2c:9f:8b:55:28:5e:cb:a3:
                    b0:60:85:8f:e7:9a:ff:7a:14:0b:5c:11:a2:2c:f1:
                    de:fe:97:eb:43:23:86:0a:a1:15:af:31:eb:87:61:
                    78:c0:10:c2:41:2d:e4:99:09:ae:d6:8d:06:14:80:
                    69:63:3c:58:01:82:69:64:2b:ea:24:15:42:e9:7b:
                    51:db
                Exponent: 65537 (0x10001)
        X509v3 extensions:
            X509v3 Basic Constraints: 
                CA:FALSE
            Netscape Comment: 
                OpenSSL Generated Certificate
            X509v3 Subject Key Identifier: 
                00:03:7F:A9:4C:89:A6:A5:08:DE:E7:01:5E:59:0F:9D:3D:B0:F9:72
            X509v3 Authority Key Identifier: 
                keyid:87:D9:5D:89:D2:58:14:CC:E1:7F:4D:1A:DF:6E:7E:82:7E:5B:65:90

    Signature Algorithm: sha256WithRSAEncryption
         6f:34:bc:d5:c1:94:e0:e1:18:a1:9b:34:37:e7:27:47:c4:d3:
         36:f7:b6:07:76:e6:7c:8b:10:8d:b4:c1:3e:3e:c7:d5:c1:19:
         0f:e6:1d:cb:74:36:a7:e5:47:9e:ad:f0:ae:64:d0:e3:d5:ae:
         0b:c9:34:1e:68:69:81:29:b2:94:7b:5f:cf:8f:a8:f8:3a:67:
         49:45:0f:5b:60:9e:a3:d9:8a:8b:7d:d8:f6:39:dc:fb:97:d6:
         bd:36:c0:f5:c9:a6:51:ae:73:96:63:03:95:a6:cf:df:96:5e:
         94:76:e2:73:9c:e6:e2:30:93:dc:16:f4:25:cb:99:8d:4a:b0:
         c1:aa:80:22:6d:f4:21:4d:fe:8b:c2:21:d4:e4:e6:83:a1:40:
         6d:44:af:fd:0f:18:47:8e:69:2d:cb:18:ac:aa:9a:93:35:7d:
         9c:37:cf:4c:fc:00:e7:3c:ed:2a:70:a8:35:b8:d6:b6:5d:3d:
         d3:72:2d:fe:4f:e7:fa:b3:e5:61:85:72:32:41:0a:e9:04:d3:
         ef:80:76:15:d0:60:17:06:fd:9e:81:f0:2f:c6:2d:59:5b:d6:
         df:a3:6d:09:f5:77:14:03:4f:11:ab:c7:10:00:ce:a9:8d:f4:
         4f:d9:75:a0:da:9c:33:05:a5:94:a9:ff:9e:29:23:17:f8:e8:
         dc:cc:5e:eb
-----BEGIN CERTIFICATE-----
MIIDwDCCAqigAwIBAgICASQwDQYJKoZIhvcNAQELBQAwejELMAkGA1UEBhMCYnIx
FzAVBgNVBAgMDlNhbnRhIENhdGFyaW5hMRMwEQYDVQQHDApQb3J0byBCZWxvMRAw
DgYDVQQKDAdVbml2YWxpMQ8wDQYDVQQLDAZDVFRNYXIxGjAYBgNVBAMMEWN0dG1h
ci51bml2YWxpLmJyMB4XDTE2MDcyNzIzMjE0MVoXDTE3MDcyNzIzMjE0MVowTzEL
MAkGA1UEBhMCYnIxCzAJBgNVBAgTAnNjMQ8wDQYDVQQKEwZjdHRtYXIxEDAOBgNV
BAsTB3VuaXZhbGkxEDAOBgNVBAMTB2NsaWVudDcwggEiMA0GCSqGSIb3DQEBAQUA
A4IBDwAwggEKAoIBAQCmkX6HQogoolRCKs9HxkqGd+iPsQDQ06uSeQD5OJids3lt
ZFPYstfeLQA9XNZUSBXHqJm25cqdab35/GqKlFO35IzheBWLZsekOILYzu0QRKJz
+ywy9Wwuw2R4rd0/VP5+iybpieIVdl20Z6TsTKB5WoZ3Vrzwpg/QjA2FbKVt7TBl
3KmjDw6QRpw2URz+OsGlIjiltucVRaGKixpeqRP0FUAHQe+/r+9Ey9AL4FFCFBRk
DbfRT9YA+SYsn4tVKF7Lo7BghY/nmv96FAtcEaIs8d7+l+tDI4YKoRWvMeuHYXjA
EMJBLeSZCa7WjQYUgGljPFgBgmlkK+okFULpe1HbAgMBAAGjezB5MAkGA1UdEwQC
MAAwLAYJYIZIAYb4QgENBB8WHU9wZW5TU0wgR2VuZXJhdGVkIENlcnRpZmljYXRl
MB0GA1UdDgQWBBQAA3+pTImmpQje5wFeWQ+dPbD5cjAfBgNVHSMEGDAWgBSH2V2J
0lgUzOF/TRrfbn6CfltlkDANBgkqhkiG9w0BAQsFAAOCAQEAbzS81cGU4OEYoZs0
N+cnR8TTNve2B3bmfIsQjbTBPj7H1cEZD+Ydy3Q2p+VHnq3wrmTQ49WuC8k0Hmhp
gSmylHtfz4+o+DpnSUUPW2Ceo9mKi33Y9jnc+5fWvTbA9cmmUa5zlmMDlabP35Ze
lHbic5zm4jCT3Bb0JcuZjUqwwaqAIm30IU3+i8Ih1OTmg6FAbUSv/Q8YR45pLcsY
rKqakzV9nDfPTPwA5zztKnCoNbjWtl0903It/k/n+rPlYYVyMkEK6QTT74B2FdBg
Fwb9noHwL8YtWVvW36NtCfV3FANPEavHEADOqY30T9l1oNqcMwWllKn/nikjF/jo
3Mxe6w==
-----END CERTIFICATE-----
